target datalayout = "e-m:e-p270:32:32-p271:32:32-p272:64:64-i64:64-i128:128-f80:128-n8:16:32:64-S128"
target triple = "x86_64-pc-linux-gnu"

@H5HF_init_g = global i8 0, align 1
@H5_libterm_g = external global i8, align 1

; Function Attrs: nounwind uwtable
define i32 @H5HF__op_write(ptr noundef %0, i64 noundef %1, ptr noundef %2) #0 {
  %4 = alloca ptr, align 8
  %5 = alloca i64, align 8
  %6 = alloca ptr, align 8
  store ptr %0, ptr %4, align 8, !tbaa !3
  store i64 %1, ptr %5, align 8, !tbaa !7
  store ptr %2, ptr %6, align 8, !tbaa !3
  %7 = load i8, ptr @H5HF_init_g, align 1, !tbaa !9, !range !11, !noundef !12
  %8 = trunc i8 %7 to i1
  br i1 %8, label %13, label %9

9:                                                ; preds = %3
  %10 = load i8, ptr @H5_libterm_g, align 1, !tbaa !9, !range !11, !noundef !12
  %11 = trunc i8 %10 to i1
  %12 = xor i1 %11, true
  br label %13

13:                                               ; preds = %9, %3
  %14 = phi i1 [ true, %3 ], [ %12, %9 ]
  %15 = xor i1 %14, true
  %16 = xor i1 %15, true
  %17 = zext i1 %16 to i32
  %18 = sext i32 %17 to i64
  %19 = call i64 @llvm.expect.i64(i64 %18, i64 1)
  %20 = icmp ne i64 %19, 0
  br i1 %20, label %21, label %25

21:                                               ; preds = %13
  %22 = load ptr, ptr %4, align 8, !tbaa !3
  %23 = load ptr, ptr %6, align 8, !tbaa !3
  %24 = load i64, ptr %5, align 8, !tbaa !7
  call void @llvm.memcpy.p0.p0.i64(ptr align 1 %22, ptr align 1 %23, i64 %24, i1 false)
  br label %25

25:                                               ; preds = %21, %13
  ret i32 0
}